; Function Attrs: nounwind uwtable
define ptr @l_Array_foldrMUnsafe_fold___at_Lean_Environment_replay___spec__3(ptr noundef readonly captures(none) %0, i64 noundef %1, i64 noundef %2, ptr noundef %3) local_unnamed_addr #0 {
  %.not32 = icmp eq i64 %1, %2
  br i1 %.not32, label %._crit_edge, label %.lr.ph

.lr.ph:                                           ; preds = %4
  %5 = getelementptr inbounds nuw i8, ptr %0, i64 24
  br label %6

6:                                                ; preds = %.lr.ph, %lean_dec.exit
  %.01634 = phi i64 [ %1, %.lr.ph ], [ %7, %lean_dec.exit ]
  %.01833 = phi ptr [ %3, %.lr.ph ], [ %27, %lean_dec.exit ]
  %7 = add i64 %.01634, -1
  %8 = getelementptr inbounds nuw [0 x ptr], ptr %5, i64 0, i64 %7
  %9 = load ptr, ptr %8, align 8, !tbaa !9
  %10 = ptrtoint ptr %9 to i64
  %11 = and i64 %10, 1
  %.not.i23 = icmp eq i64 %11, 0
  br i1 %.not.i23, label %12, label %lean_array_uget.exit

12:                                               ; preds = %6
  %.val.i.i = load i32, ptr %9, align 4, !tbaa !4
  %13 = icmp sgt i32 %.val.i.i, 0
  br i1 %13, label %14, label %16, !prof !12

14:                                               ; preds = %12
  %15 = add nuw i32 %.val.i.i, 1
  store i32 %15, ptr %9, align 4, !tbaa !4
  br label %19

16:                                               ; preds = %12
  %.not.i.i = icmp eq i32 %.val.i.i, 0
  br i1 %.not.i.i, label %19, label %17

17:                                               ; preds = %16
  tail call void @lean_inc_ref_cold(ptr noundef nonnull %9) #5
  br label %19

lean_array_uget.exit:                             ; preds = %6
  %18 = tail call ptr @l_Std_DHashMap_Internal_AssocList_foldrM___at_Lean_Environment_replay___spec__2(ptr noundef %.01833, ptr noundef %9)
  br label %lean_dec.exit20

19:                                               ; preds = %14, %16, %17
  %20 = tail call ptr @l_Std_DHashMap_Internal_AssocList_foldrM___at_Lean_Environment_replay___spec__2(ptr noundef %.01833, ptr noundef nonnull %9)
  %21 = load i32, ptr %9, align 4, !tbaa !4
  %22 = icmp sgt i32 %21, 1
  br i1 %22, label %23, label %25, !prof !12

23:                                               ; preds = %19
  %24 = add nsw i32 %21, -1
  store i32 %24, ptr %9, align 4, !tbaa !4
  br label %lean_dec.exit20

25:                                               ; preds = %19
  %.not.i = icmp eq i32 %21, 0
  br i1 %.not.i, label %lean_dec.exit20, label %26

26:                                               ; preds = %25
  tail call void @lean_dec_ref_cold(ptr noundef nonnull %9) #5
  br label %lean_dec.exit20

lean_dec.exit20:                                  ; preds = %26, %25, %23, %lean_array_uget.exit
  %27 = phi ptr [ %18, %lean_array_uget.exit ], [ %20, %23 ], [ %20, %25 ], [ %20, %26 ]
  %28 = ptrtoint ptr %.01833 to i64
  %29 = and i64 %28, 1
  %.not31 = icmp eq i64 %29, 0
  br i1 %.not31, label %30, label %lean_dec.exit

30:                                               ; preds = %lean_dec.exit20
  %31 = load i32, ptr %.01833, align 4, !tbaa !4
  %32 = icmp sgt i32 %31, 1
  br i1 %32, label %33, label %35, !prof !12

33:                                               ; preds = %30
  %34 = add nsw i32 %31, -1
  store i32 %34, ptr %.01833, align 4, !tbaa !4
  br label %lean_dec.exit

35:                                               ; preds = %30
  %.not.i21 = icmp eq i32 %31, 0
  br i1 %.not.i21, label %lean_dec.exit, label %36

36:                                               ; preds = %35
  tail call void @lean_dec_ref_cold(ptr noundef nonnull %.01833) #5
  br label %lean_dec.exit

lean_dec.exit:                                    ; preds = %lean_dec.exit20, %33, %35, %36
  %.not = icmp eq i64 %7, %2
  br i1 %.not, label %._crit_edge, label %6

._crit_edge:                                      ; preds = %lean_dec.exit, %4
  %.018.lcssa = phi ptr [ %3, %4 ], [ %27, %lean_dec.exit ]
  ret ptr %.018.lcssa
}